target datalayout = "e-m:e-p270:32:32-p271:32:32-p272:64:64-i64:64-i128:128-f80:128-n8:16:32:64-S128"
target triple = "x86_64-pc-linux-gnu"

; Function Attrs: nounwind uwtable
define i64 @hashString(ptr noundef %0) #0 {
  %2 = alloca ptr, align 8
  %3 = alloca i64, align 8
  %4 = alloca i32, align 4
  store ptr %0, ptr %2, align 8, !tbaa !32
  call void @llvm.lifetime.start.p0(i64 8, ptr %3) #8
  store i64 5381, ptr %3, align 8, !tbaa !34
  call void @llvm.lifetime.start.p0(i64 4, ptr %4) #8
  br label %5

5:                                                ; preds = %11, %1
  %6 = load ptr, ptr %2, align 8, !tbaa !32
  %7 = getelementptr inbounds nuw i8, ptr %6, i32 1
  store ptr %7, ptr %2, align 8, !tbaa !32
  %8 = load i8, ptr %6, align 1, !tbaa !36
  %9 = sext i8 %8 to i32
  store i32 %9, ptr %4, align 4, !tbaa !9
  %10 = icmp ne i32 %9, 0
  br i1 %10, label %11, label %19

11:                                               ; preds = %5
  %12 = load i64, ptr %3, align 8, !tbaa !34
  %13 = shl i64 %12, 5
  %14 = load i64, ptr %3, align 8, !tbaa !34
  %15 = add i64 %13, %14
  %16 = load i32, ptr %4, align 4, !tbaa !9
  %17 = sext i32 %16 to i64
  %18 = add i64 %15, %17
  store i64 %18, ptr %3, align 8, !tbaa !34
  br label %5

19:                                               ; preds = %5
  %20 = load i64, ptr %3, align 8, !tbaa !34
  call void @llvm.lifetime.end.p0(i64 4, ptr %4) #8
  call void @llvm.lifetime.end.p0(i64 8, ptr %3) #8
  ret i64 %20
}