; Function Attrs: nofree norecurse nosync nounwind memory(argmem: read) uwtable
define i64 @hashString(ptr noundef readonly captures(none) %0) local_unnamed_addr #0 {
  %2 = load i8, ptr %0, align 1, !tbaa !24
  %.not6 = icmp eq i8 %2, 0
  br i1 %.not6, label %._crit_edge, label %.lr.ph

.lr.ph:                                           ; preds = %1, %.lr.ph
  %3 = phi i8 [ %8, %.lr.ph ], [ %2, %1 ]
  %.08 = phi ptr [ %4, %.lr.ph ], [ %0, %1 ]
  %.047 = phi i64 [ %7, %.lr.ph ], [ 5381, %1 ]
  %4 = getelementptr inbounds nuw i8, ptr %.08, i64 1
  %5 = mul i64 %.047, 33
  %6 = sext i8 %3 to i64
  %7 = add i64 %5, %6
  %8 = load i8, ptr %4, align 1, !tbaa !24
  %.not = icmp eq i8 %8, 0
  br i1 %.not, label %._crit_edge, label %.lr.ph

._crit_edge:                                      ; preds = %.lr.ph, %1
  %.04.lcssa = phi i64 [ 5381, %1 ], [ %7, %.lr.ph ]
  ret i64 %.04.lcssa
}